target datalayout = "e-m:e-p270:32:32-p271:32:32-p272:64:64-i64:64-i128:128-f80:128-n8:16:32:64-S128"
target triple = "x86_64-pc-linux-gnu"

%"class.toku::keyrange" = type <{ %struct.__toku_dbt, %struct.__toku_dbt, ptr, ptr, i8, [7 x i8] }>
%struct.__toku_dbt = type { ptr, i64, i64, i32 }
%"class.toku::concurrent_tree::locked_keyrange" = type { ptr, %"class.toku::keyrange", ptr }

; Function Attrs: mustprogress uwtable
define void @_ZN4toku15concurrent_tree15locked_keyrange6removeERKNS_8keyrangeEm(ptr noundef nonnull align 8 dereferenceable(104) %0, ptr noundef nonnull align 8 dereferenceable(81) %1, i64 noundef %2) #0 align 2 {
  %4 = alloca ptr, align 8
  %5 = alloca ptr, align 8
  %6 = alloca i64, align 8
  %7 = alloca ptr, align 8
  store ptr %0, ptr %4, align 8, !tbaa !11
  store ptr %1, ptr %5, align 8, !tbaa !30
  store i64 %2, ptr %6, align 8, !tbaa !26
  %8 = load ptr, ptr %4, align 8
  %9 = getelementptr inbounds nuw %"class.toku::concurrent_tree::locked_keyrange", ptr %8, i32 0, i32 2
  %10 = load ptr, ptr %9, align 8, !tbaa !23
  %11 = call noundef zeroext i1 @_ZN4toku8treenode8is_emptyEv(ptr noundef nonnull align 8 dereferenceable(202) %10)
  call void @llvm.lifetime.start.p0(i64 8, ptr %7) #5
  %12 = getelementptr inbounds nuw %"class.toku::concurrent_tree::locked_keyrange", ptr %8, i32 0, i32 2
  %13 = load ptr, ptr %12, align 8, !tbaa !23
  %14 = load ptr, ptr %5, align 8, !tbaa !30
  %15 = load i64, ptr %6, align 8, !tbaa !26
  %16 = call noundef ptr @_ZN4toku8treenode6removeERKNS_8keyrangeEm(ptr noundef nonnull align 8 dereferenceable(202) %13, ptr noundef nonnull align 8 dereferenceable(81) %14, i64 noundef %15)
  store ptr %16, ptr %7, align 8, !tbaa !13
  %17 = load ptr, ptr %7, align 8, !tbaa !13
  %18 = icmp eq ptr %17, null
  br i1 %18, label %19, label %26

19:                                               ; preds = %3
  %20 = getelementptr inbounds nuw %"class.toku::concurrent_tree::locked_keyrange", ptr %8, i32 0, i32 2
  %21 = load ptr, ptr %20, align 8, !tbaa !23
  %22 = call noundef zeroext i1 @_ZN4toku8treenode7is_rootEv(ptr noundef nonnull align 8 dereferenceable(202) %21)
  %23 = getelementptr inbounds nuw %"class.toku::concurrent_tree::locked_keyrange", ptr %8, i32 0, i32 2
  %24 = load ptr, ptr %23, align 8, !tbaa !23
  %25 = call noundef zeroext i1 @_ZN4toku8treenode8is_emptyEv(ptr noundef nonnull align 8 dereferenceable(202) %24)
  br label %26

26:                                               ; preds = %19, %3
  call void @llvm.lifetime.end.p0(i64 8, ptr %7) #5
  ret void
}