; Function Attrs: mustprogress uwtable
define void @_ZN4toku15concurrent_tree15locked_keyrange6removeERKNS_8keyrangeEm(ptr noundef nonnull readonly align 8 captures(none) dereferenceable(104) %0, ptr noundef nonnull align 8 dereferenceable(81) %1, i64 noundef %2) local_unnamed_addr #0 align 2 {
  %4 = getelementptr inbounds nuw i8, ptr %0, i64 96
  %5 = load ptr, ptr %4, align 8, !tbaa !17
  %6 = tail call noundef zeroext i1 @_ZN4toku8treenode8is_emptyEv(ptr noundef nonnull align 8 dereferenceable(202) %5)
  %7 = load ptr, ptr %4, align 8, !tbaa !17
  %8 = tail call noundef ptr @_ZN4toku8treenode6removeERKNS_8keyrangeEm(ptr noundef nonnull align 8 dereferenceable(202) %7, ptr noundef nonnull align 8 dereferenceable(81) %1, i64 noundef %2)
  %9 = icmp eq ptr %8, null
  br i1 %9, label %10, label %15

10:                                               ; preds = %3
  %11 = load ptr, ptr %4, align 8, !tbaa !17
  %12 = tail call noundef zeroext i1 @_ZN4toku8treenode7is_rootEv(ptr noundef nonnull align 8 dereferenceable(202) %11)
  %13 = load ptr, ptr %4, align 8, !tbaa !17
  %14 = tail call noundef zeroext i1 @_ZN4toku8treenode8is_emptyEv(ptr noundef nonnull align 8 dereferenceable(202) %13)
  br label %15

15:                                               ; preds = %10, %3
  ret void
}